; Function Attrs: uwtable
define noundef nonnull align 8 dereferenceable(56) ptr @_ZN5boost6cobalt11this_thread12get_executorERKNS_15source_locationE(ptr noundef nonnull align 8 dereferenceable(24) %0) local_unnamed_addr #8 personality ptr @__gxx_personality_v0 {
  %2 = alloca %"class.boost::asio::bad_executor", align 8
  %3 = load i8, ptr @__tls_guard, align 1
  %4 = icmp eq i8 %3, 0
  br i1 %4, label %5, label %_ZTWN5boost6cobalt11this_thread6detail8executorE.exit, !prof !17

5:                                                ; preds = %1
  store i8 1, ptr @__tls_guard, align 1
  %6 = tail call ptr @llvm.invariant.start.p0(i64 1, ptr nonnull @__tls_guard)
  %7 = tail call noundef nonnull ptr @_ZNSt3pmr20get_default_resourceEv() #6
  %8 = tail call align 8 ptr @llvm.threadlocal.address.p0(ptr align 8 @_ZN5boost6cobalt11this_thread6detail28default_coro_memory_resourceE)
  store ptr %7, ptr %8, align 8, !tbaa !18
  %9 = tail call i32 @__cxa_thread_atexit(ptr nonnull @_ZNSt14_Optional_baseIN5boost4asio15any_io_executorELb0ELb0EED2Ev, ptr nonnull @_ZN5boost6cobalt11this_thread6detail8executorE, ptr nonnull @__dso_handle) #6
  br label %_ZTWN5boost6cobalt11this_thread6detail8executorE.exit

_ZTWN5boost6cobalt11this_thread6detail8executorE.exit: ; preds = %1, %5
  %10 = tail call noundef align 8 ptr @llvm.threadlocal.address.p0(ptr align 8 @_ZN5boost6cobalt11this_thread6detail8executorE)
  %11 = getelementptr inbounds nuw i8, ptr %10, i64 56
  %12 = load i8, ptr %11, align 8, !tbaa !3, !range !8, !noundef !9
  %13 = trunc nuw i8 %12 to i1
  br i1 %13, label %18, label %14

14:                                               ; preds = %_ZTWN5boost6cobalt11this_thread6detail8executorE.exit
  call void @llvm.lifetime.start.p0(i64 8, ptr nonnull %2) #6
  store ptr getelementptr inbounds inrange(-16, 24) (i8, ptr @_ZTVN5boost4asio12bad_executorE, i64 16), ptr %2, align 8, !tbaa !20
  invoke void @_ZN5boost15throw_exceptionINS_4asio12bad_executorEEEvRKT_RKNS_15source_locationE(ptr noundef nonnull align 8 dereferenceable(8) %2, ptr noundef nonnull align 8 dereferenceable(24) %0) #24
          to label %15 unwind label %16

15:                                               ; preds = %14
  unreachable

16:                                               ; preds = %14
  %17 = landingpad { ptr, i32 }
          cleanup
  call void @_ZNSt9exceptionD2Ev(ptr noundef nonnull align 8 dereferenceable(8) %2) #6
  call void @llvm.lifetime.end.p0(i64 8, ptr nonnull %2) #6
  resume { ptr, i32 } %17

18:                                               ; preds = %_ZTWN5boost6cobalt11this_thread6detail8executorE.exit
  %19 = load i8, ptr @__tls_guard, align 1
  %20 = icmp eq i8 %19, 0
  br i1 %20, label %21, label %_ZTWN5boost6cobalt11this_thread6detail8executorE.exit2, !prof !17

21:                                               ; preds = %18
  store i8 1, ptr @__tls_guard, align 1
  %22 = tail call ptr @llvm.invariant.start.p0(i64 1, ptr nonnull @__tls_guard)
  %23 = tail call noundef nonnull ptr @_ZNSt3pmr20get_default_resourceEv() #6
  %24 = tail call align 8 ptr @llvm.threadlocal.address.p0(ptr align 8 @_ZN5boost6cobalt11this_thread6detail28default_coro_memory_resourceE)
  store ptr %23, ptr %24, align 8, !tbaa !18
  %25 = tail call i32 @__cxa_thread_atexit(ptr nonnull @_ZNSt14_Optional_baseIN5boost4asio15any_io_executorELb0ELb0EED2Ev, ptr nonnull @_ZN5boost6cobalt11this_thread6detail8executorE, ptr nonnull @__dso_handle) #6
  br label %_ZTWN5boost6cobalt11this_thread6detail8executorE.exit2

_ZTWN5boost6cobalt11this_thread6detail8executorE.exit2: ; preds = %18, %21
  ret ptr %10
}